target datalayout = "e-m:e-p270:32:32-p271:32:32-p272:64:64-i64:64-i128:128-f80:128-n8:16:32:64-S128"
target triple = "x86_64-unknown-linux-gnu"

%"class.std::basic_string_view" = type { i64, ptr }
%"class.google::protobuf::TextFormat::Parser" = type { ptr, ptr, ptr, i8, i8, i8, i8, i8, i8, i8, i8, i32, ptr }
%"class.google::protobuf::io::ArrayInputStream" = type { %"class.google::protobuf::io::ZeroCopyInputStream", ptr, i32, i32, i32, i32 }
%"class.google::protobuf::io::ZeroCopyInputStream" = type { ptr }

@_ZN6google8protobuf10TextFormat6ParserC1Ev = unnamed_addr alias void (ptr), ptr @_ZN6google8protobuf10TextFormat6ParserC2Ev
@_ZN6google8protobuf10TextFormat6ParserD1Ev = unnamed_addr alias void (ptr), ptr @_ZN6google8protobuf10TextFormat6ParserD2Ev

; Function Attrs: mustprogress nounwind uwtable
define linkonce_odr hidden void @_ZN6google8protobuf2io19ZeroCopyInputStreamD2Ev(ptr noundef nonnull align 8 dereferenceable(8) %this) unnamed_addr #4 comdat align 2 {
entry:
  %this.addr = alloca ptr, align 8
  store ptr %this, ptr %this.addr, align 8
  ret void
}

; Function Attrs: mustprogress nounwind uwtable
define linkonce_odr hidden void @_ZN6google8protobuf2io16ArrayInputStreamD2Ev(ptr noundef nonnull align 8 dereferenceable(32) %this) unnamed_addr #4 comdat align 2 {
entry:
  %this.addr = alloca ptr, align 8
  store ptr %this, ptr %this.addr, align 8
  %this1 = load ptr, ptr %this.addr, align 8
  call void @_ZN6google8protobuf2io19ZeroCopyInputStreamD2Ev(ptr noundef nonnull align 8 dereferenceable(8) %this1) #3
  ret void
}

; Function Attrs: mustprogress nounwind uwtable
define linkonce_odr hidden noundef i64 @_ZNKSt17basic_string_viewIcSt11char_traitsIcEE4sizeEv(ptr noundef nonnull align 8 dereferenceable(16) %this) #4 comdat align 2 {
entry:
  %this.addr = alloca ptr, align 8
  store ptr %this, ptr %this.addr, align 8
  %this1 = load ptr, ptr %this.addr, align 8
  %_M_len = getelementptr inbounds %"class.std::basic_string_view", ptr %this1, i32 0, i32 0
  %0 = load i64, ptr %_M_len, align 8
  ret i64 %0
}

; Function Attrs: mustprogress nounwind uwtable
define linkonce_odr hidden noundef ptr @_ZNKSt17basic_string_viewIcSt11char_traitsIcEE4dataEv(ptr noundef nonnull align 8 dereferenceable(16) %this) #4 comdat align 2 {
entry:
  %this.addr = alloca ptr, align 8
  store ptr %this, ptr %this.addr, align 8
  %this1 = load ptr, ptr %this.addr, align 8
  %_M_str = getelementptr inbounds %"class.std::basic_string_view", ptr %this1, i32 0, i32 1
  %0 = load ptr, ptr %_M_str, align 8
  ret ptr %0
}

; Function Attrs: mustprogress uwtable
define noundef zeroext i1 @_ZN6google8protobuf10TextFormat6Parser15MergeFromStringESt17basic_string_viewIcSt11char_traitsIcEEPNS0_7MessageE(ptr noundef nonnull align 8 dereferenceable(48) %this, i64 %input.coerce0, ptr %input.coerce1, ptr noundef %output) #5 align 2 personality ptr @__gxx_personality_v0 {
entry:
  %retval = alloca i1, align 1
  %input = alloca %"class.std::basic_string_view", align 8
  %this.addr = alloca ptr, align 8
  %output.addr = alloca ptr, align 8
  %input_stream = alloca %"class.google::protobuf::io::ArrayInputStream", align 8
  %exn.slot = alloca ptr, align 8
  %ehselector.slot = alloca i32, align 4
  %0 = getelementptr inbounds { i64, ptr }, ptr %input, i32 0, i32 0
  store i64 %input.coerce0, ptr %0, align 8
  %1 = getelementptr inbounds { i64, ptr }, ptr %input, i32 0, i32 1
  store ptr %input.coerce1, ptr %1, align 8
  store ptr %this, ptr %this.addr, align 8
  store ptr %output, ptr %output.addr, align 8
  %this1 = load ptr, ptr %this.addr, align 8
  %error_collector_ = getelementptr inbounds %"class.google::protobuf::TextFormat::Parser", ptr %this1, i32 0, i32 0
  %2 = load ptr, ptr %error_collector_, align 8
  %call = call noundef zeroext i1 @_ZN6google8protobuf12_GLOBAL__N_119CheckParseInputSizeISt17basic_string_viewIcSt11char_traitsIcEEEEbRT_PNS0_2io14ErrorCollectorE(ptr noundef nonnull align 8 dereferenceable(16) %input, ptr noundef %2)
  br i1 %call, label %if.then, label %if.else

if.then:                                          ; preds = %entry
  br label %if.end

if.else:                                          ; preds = %entry
  store i1 false, ptr %retval, align 1
  br label %return

if.end:                                           ; preds = %if.then
  %call2 = call noundef ptr @_ZNKSt17basic_string_viewIcSt11char_traitsIcEE4dataEv(ptr noundef nonnull align 8 dereferenceable(16) %input) #3
  %call3 = call noundef i64 @_ZNKSt17basic_string_viewIcSt11char_traitsIcEE4sizeEv(ptr noundef nonnull align 8 dereferenceable(16) %input) #3
  %conv = trunc i64 %call3 to i32
  call void @_ZN6google8protobuf2io16ArrayInputStreamC1EPKvii(ptr noundef nonnull align 8 dereferenceable(32) %input_stream, ptr noundef %call2, i32 noundef %conv, i32 noundef -1)
  %3 = load ptr, ptr %output.addr, align 8
  %call4 = invoke noundef zeroext i1 @_ZN6google8protobuf10TextFormat6Parser5MergeEPNS0_2io19ZeroCopyInputStreamEPNS0_7MessageE(ptr noundef nonnull align 8 dereferenceable(48) %this1, ptr noundef %input_stream, ptr noundef %3)
          to label %invoke.cont unwind label %lpad

invoke.cont:                                      ; preds = %if.end
  store i1 %call4, ptr %retval, align 1
  call void @_ZN6google8protobuf2io16ArrayInputStreamD2Ev(ptr noundef nonnull align 8 dereferenceable(32) %input_stream) #3
  br label %return

lpad:                                             ; preds = %if.end
  %4 = landingpad { ptr, i32 }
          cleanup
  %5 = extractvalue { ptr, i32 } %4, 0
  store ptr %5, ptr %exn.slot, align 8
  %6 = extractvalue { ptr, i32 } %4, 1
  store i32 %6, ptr %ehselector.slot, align 4
  call void @_ZN6google8protobuf2io16ArrayInputStreamD2Ev(ptr noundef nonnull align 8 dereferenceable(32) %input_stream) #3
  br label %eh.resume

return:                                           ; preds = %invoke.cont, %if.else
  %7 = load i1, ptr %retval, align 1
  ret i1 %7

eh.resume:                                        ; preds = %lpad
  %exn = load ptr, ptr %exn.slot, align 8
  %sel = load i32, ptr %ehselector.slot, align 4
  %lpad.val = insertvalue { ptr, i32 } poison, ptr %exn, 0
  %lpad.val5 = insertvalue { ptr, i32 } %lpad.val, i32 %sel, 1
  resume { ptr, i32 } %lpad.val5
}

; Function Attrs: mustprogress uwtable
define noundef zeroext i1 @_ZN6google8protobuf10TextFormat15MergeFromStringESt17basic_string_viewIcSt11char_traitsIcEEPNS0_7MessageE(i64 %input.coerce0, ptr %input.coerce1, ptr noundef %output) #5 align 2 personality ptr @__gxx_personality_v0 {
entry:
  %input = alloca %"class.std::basic_string_view", align 8
  %output.addr = alloca ptr, align 8
  %ref.tmp = alloca %"class.google::protobuf::TextFormat::Parser", align 8
  %agg.tmp = alloca %"class.std::basic_string_view", align 8
  %exn.slot = alloca ptr, align 8
  %ehselector.slot = alloca i32, align 4
  %0 = getelementptr inbounds { i64, ptr }, ptr %input, i32 0, i32 0
  store i64 %input.coerce0, ptr %0, align 8
  %1 = getelementptr inbounds { i64, ptr }, ptr %input, i32 0, i32 1
  store ptr %input.coerce1, ptr %1, align 8
  store ptr %output, ptr %output.addr, align 8
  call void @_ZN6google8protobuf10TextFormat6ParserC1Ev(ptr noundef nonnull align 8 dereferenceable(48) %ref.tmp)
  call void @llvm.memcpy.p0.p0.i64(ptr align 8 %agg.tmp, ptr align 8 %input, i64 16, i1 false)
  %2 = load ptr, ptr %output.addr, align 8
  %3 = getelementptr inbounds { i64, ptr }, ptr %agg.tmp, i32 0, i32 0
  %4 = load i64, ptr %3, align 8
  %5 = getelementptr inbounds { i64, ptr }, ptr %agg.tmp, i32 0, i32 1
  %6 = load ptr, ptr %5, align 8
  %call = invoke noundef zeroext i1 @_ZN6google8protobuf10TextFormat6Parser15MergeFromStringESt17basic_string_viewIcSt11char_traitsIcEEPNS0_7MessageE(ptr noundef nonnull align 8 dereferenceable(48) %ref.tmp, i64 %4, ptr %6, ptr noundef %2)
          to label %invoke.cont unwind label %lpad

invoke.cont:                                      ; preds = %entry
  call void @_ZN6google8protobuf10TextFormat6ParserD1Ev(ptr noundef nonnull align 8 dereferenceable(48) %ref.tmp) #3
  ret i1 %call

lpad:                                             ; preds = %entry
  %7 = landingpad { ptr, i32 }
          cleanup
  %8 = extractvalue { ptr, i32 } %7, 0
  store ptr %8, ptr %exn.slot, align 8
  %9 = extractvalue { ptr, i32 } %7, 1
  store i32 %9, ptr %ehselector.slot, align 4
  call void @_ZN6google8protobuf10TextFormat6ParserD1Ev(ptr noundef nonnull align 8 dereferenceable(48) %ref.tmp) #3
  br label %eh.resume

eh.resume:                                        ; preds = %lpad
  %exn = load ptr, ptr %exn.slot, align 8
  %sel = load i32, ptr %ehselector.slot, align 4
  %lpad.val = insertvalue { ptr, i32 } poison, ptr %exn, 0
  %lpad.val1 = insertvalue { ptr, i32 } %lpad.val, i32 %sel, 1
  resume { ptr, i32 } %lpad.val1
}