; Function Attrs: mustprogress uwtable
define noundef zeroext i1 @_ZN6google8protobuf10TextFormat15MergeFromStringESt17basic_string_viewIcSt11char_traitsIcEEPNS0_7MessageE(i64 %input.coerce0, ptr %input.coerce1, ptr noundef %output) local_unnamed_addr #4 align 2 personality ptr @__gxx_personality_v0 {
entry:
  %input_stream.i = alloca %"class.google::protobuf::io::ArrayInputStream", align 8
  %ref.tmp = alloca %"class.google::protobuf::TextFormat::Parser", align 8
  call void @_ZN6google8protobuf10TextFormat6ParserC1Ev(ptr noundef nonnull align 8 dereferenceable(48) %ref.tmp)
  call void @llvm.lifetime.start.p0(i64 32, ptr nonnull %input_stream.i)
  %0 = load ptr, ptr %ref.tmp, align 8
  %call.i1 = invoke fastcc noundef zeroext i1 @_ZN6google8protobuf12_GLOBAL__N_119CheckParseInputSizeISt17basic_string_viewIcSt11char_traitsIcEEEEbRT_PNS0_2io14ErrorCollectorE(i64 %input.coerce0, ptr noundef %0)
          to label %call.i.noexc unwind label %lpad

call.i.noexc:                                     ; preds = %entry
  br i1 %call.i1, label %if.end.i, label %invoke.cont

if.end.i:                                         ; preds = %call.i.noexc
  %conv.i = trunc i64 %input.coerce0 to i32
  invoke void @_ZN6google8protobuf2io16ArrayInputStreamC1EPKvii(ptr noundef nonnull align 8 dereferenceable(32) %input_stream.i, ptr noundef %input.coerce1, i32 noundef %conv.i, i32 noundef -1)
          to label %.noexc unwind label %lpad

.noexc:                                           ; preds = %if.end.i
  %call4.i2 = invoke noundef zeroext i1 @_ZN6google8protobuf10TextFormat6Parser5MergeEPNS0_2io19ZeroCopyInputStreamEPNS0_7MessageE(ptr noundef nonnull align 8 dereferenceable(48) %ref.tmp, ptr noundef nonnull %input_stream.i, ptr noundef %output)
          to label %invoke.cont unwind label %lpad

invoke.cont:                                      ; preds = %call.i.noexc, %.noexc
  %retval.0.i = phi i1 [ false, %call.i.noexc ], [ %call4.i2, %.noexc ]
  call void @llvm.lifetime.end.p0(i64 32, ptr nonnull %input_stream.i)
  call void @_ZN6google8protobuf10TextFormat6ParserD1Ev(ptr noundef nonnull align 8 dereferenceable(48) %ref.tmp) #34
  ret i1 %retval.0.i

lpad:                                             ; preds = %.noexc, %if.end.i, %entry
  %1 = landingpad { ptr, i32 }
          cleanup
  call void @_ZN6google8protobuf10TextFormat6ParserD1Ev(ptr noundef nonnull align 8 dereferenceable(48) %ref.tmp) #34
  resume { ptr, i32 } %1
}